	.file	"main.cpp"
	.intel_syntax noprefix
	.text
#APP
	.globl _ZSt21ios_base_library_initv
	.section	.rodata
.LC0:
	.string	" NULL != 0 "
.LC1:
	.string	" NULL != (void*)0 "
.LC2:
	.string	" NULL != nullptr "
#NO_APP
	.text
	.globl	main
	.type	main, @function
main:
.LFB2011:
	.cfi_startproc
	push	rbp
	.cfi_def_cfa_offset 16
	.cfi_offset 6, -16
	mov	rbp, rsp
	.cfi_def_cfa_register 6
	lea	rax, .LC0[rip]
	mov	rsi, rax
	lea	rax, _ZSt4cout[rip]
	mov	rdi, rax
	call	_ZStlsISt11char_traitsIcEERSt13basic_ostreamIcT_ES5_PKc@PLT
	mov	rdx, QWORD PTR _ZSt4endlIcSt11char_traitsIcEERSt13basic_ostreamIT_T0_ES6_@GOTPCREL[rip]
	mov	rsi, rdx
	mov	rdi, rax
	call	_ZNSolsEPFRSoS_E@PLT
	lea	rax, .LC1[rip]
	mov	rsi, rax
	lea	rax, _ZSt4cout[rip]
	mov	rdi, rax
	call	_ZStlsISt11char_traitsIcEERSt13basic_ostreamIcT_ES5_PKc@PLT
	mov	rdx, QWORD PTR _ZSt4endlIcSt11char_traitsIcEERSt13basic_ostreamIT_T0_ES6_@GOTPCREL[rip]
	mov	rsi, rdx
	mov	rdi, rax
	call	_ZNSolsEPFRSoS_E@PLT
	lea	rax, .LC2[rip]
	mov	rsi, rax
	lea	rax, _ZSt4cout[rip]
	mov	rdi, rax
	call	_ZStlsISt11char_traitsIcEERSt13basic_ostreamIcT_ES5_PKc@PLT
	mov	rdx, QWORD PTR _ZSt4endlIcSt11char_traitsIcEERSt13basic_ostreamIT_T0_ES6_@GOTPCREL[rip]
	mov	rsi, rdx
	mov	rdi, rax
	call	_ZNSolsEPFRSoS_E@PLT
	mov	edi, 0
	call	_Z3fooi
	mov	edi, 0
	call	_Z3fooPc
	mov	eax, 0
	pop	rbp
	.cfi_def_cfa 7, 8
	ret
	.cfi_endproc
.LFE2011:
	.size	main, .-main
	.section	.rodata
.LC3:
	.string	"foo(char*) is called : ["
.LC4:
	.string	"]\n"
	.text
	.globl	_Z3fooPc
	.type	_Z3fooPc, @function
_Z3fooPc:
.LFB2012:
	.cfi_startproc
	push	rbp
	.cfi_def_cfa_offset 16
	.cfi_offset 6, -16
	mov	rbp, rsp
	.cfi_def_cfa_register 6
	sub	rsp, 16
	mov	QWORD PTR -8[rbp], rdi
	lea	rax, .LC3[rip]
	mov	rsi, rax
	lea	rax, _ZSt4cout[rip]
	mov	rdi, rax
	call	_ZStlsISt11char_traitsIcEERSt13basic_ostreamIcT_ES5_PKc@PLT
	mov	rdx, rax
	mov	rax, QWORD PTR -8[rbp]
	mov	rsi, rax
	mov	rdi, rdx
	call	_ZStlsISt11char_traitsIcEERSt13basic_ostreamIcT_ES5_PKc@PLT
	mov	rdx, rax
	lea	rax, .LC4[rip]
	mov	rsi, rax
	mov	rdi, rdx
	call	_ZStlsISt11char_traitsIcEERSt13basic_ostreamIcT_ES5_PKc@PLT
	nop
	leave
	.cfi_def_cfa 7, 8
	ret
	.cfi_endproc
.LFE2012:
	.size	_Z3fooPc, .-_Z3fooPc
	.section	.rodata
.LC5:
	.string	"foo(int) is called : ["
	.text
	.globl	_Z3fooi
	.type	_Z3fooi, @function
_Z3fooi:
.LFB2013:
	.cfi_startproc
	push	rbp
	.cfi_def_cfa_offset 16
	.cfi_offset 6, -16
	mov	rbp, rsp
	.cfi_def_cfa_register 6
	sub	rsp, 16
	mov	DWORD PTR -4[rbp], edi
	lea	rax, .LC5[rip]
	mov	rsi, rax
	lea	rax, _ZSt4cout[rip]
	mov	rdi, rax
	call	_ZStlsISt11char_traitsIcEERSt13basic_ostreamIcT_ES5_PKc@PLT
	mov	rdx, rax
	mov	eax, DWORD PTR -4[rbp]
	mov	esi, eax
	mov	rdi, rdx
	call	_ZNSolsEi@PLT
	mov	rdx, rax
	lea	rax, .LC4[rip]
	mov	rsi, rax
	mov	rdi, rdx
	call	_ZStlsISt11char_traitsIcEERSt13basic_ostreamIcT_ES5_PKc@PLT
	nop
	leave
	.cfi_def_cfa 7, 8
	ret
	.cfi_endproc
.LFE2013:
	.size	_Z3fooi, .-_Z3fooi
	.section	.rodata
	.type	_ZNSt8__detail30__integer_to_chars_is_unsignedIjEE, @object
	.size	_ZNSt8__detail30__integer_to_chars_is_unsignedIjEE, 1
_ZNSt8__detail30__integer_to_chars_is_unsignedIjEE:
	.byte	1
	.type	_ZNSt8__detail30__integer_to_chars_is_unsignedImEE, @object
	.size	_ZNSt8__detail30__integer_to_chars_is_unsignedImEE, 1
_ZNSt8__detail30__integer_to_chars_is_unsignedImEE:
	.byte	1
	.type	_ZNSt8__detail30__integer_to_chars_is_unsignedIyEE, @object
	.size	_ZNSt8__detail30__integer_to_chars_is_unsignedIyEE, 1
_ZNSt8__detail30__integer_to_chars_is_unsignedIyEE:
	.byte	1
	.ident	"GCC: (Debian 14.2.0-19) 14.2.0"
	.section	.note.GNU-stack,"",@progbits
